target datalayout = "e-m:e-p270:32:32-p271:32:32-p272:64:64-i64:64-i128:128-f80:128-n8:16:32:64-S128"
target triple = "x86_64-pc-linux-gnu"

%"class.ODDLParser::Value" = type { i32, i64, ptr, ptr }

; Function Attrs: mustprogress nounwind uwtable
define hidden void @_ZN10ODDLParser5Value16setUnsignedInt16Et(ptr noundef nonnull align 8 dereferenceable(32) %0, i16 noundef zeroext %1) #2 align 2 {
  %3 = alloca ptr, align 8
  %4 = alloca i16, align 2
  store ptr %0, ptr %3, align 8
  store i16 %1, ptr %4, align 2
  %5 = load ptr, ptr %3, align 8
  %6 = getelementptr inbounds nuw %"class.ODDLParser::Value", ptr %5, i32 0, i32 2
  %7 = load ptr, ptr %6, align 8
  %8 = getelementptr inbounds nuw %"class.ODDLParser::Value", ptr %5, i32 0, i32 1
  %9 = load i64, ptr %8, align 8
  call void @llvm.memcpy.p0.p0.i64(ptr align 1 %7, ptr align 2 %4, i64 %9, i1 false)
  ret void
}